; ModuleID = '16/729.c'
source_filename = "16/729.c"
target datalayout = "e-m:e-p270:32:32-p271:32:32-p272:64:64-i64:64-f80:128-n8:16:32:64-S128"
target triple = "x86_64-pc-linux-gnu"

@.str = private unnamed_addr constant [3 x i8] c"%d\00", align 1
@.str.1 = private unnamed_addr constant [2 x i8] c"0\00", align 1

; Function Attrs: noinline nounwind uwtable
define dso_local i32 @main() #0 {
  %1 = alloca i32, align 4
  %2 = alloca i32, align 4
  %3 = alloca i32, align 4
  %4 = alloca i32, align 4
  %5 = alloca i32, align 4
  %6 = alloca i32, align 4
  %7 = alloca i32, align 4
  store i32 0, i32* %1, align 4
  store i32 0, i32* %3, align 4
  store i32 0, i32* %4, align 4
  store i32 10, i32* %5, align 4
  %8 = call i32 (i8*, ...) @__isoc99_scanf(i8* getelementptr inbounds ([3 x i8], [3 x i8]* @.str, i64 0, i64 0), i32* %2)
  store i32 1, i32* %7, align 4
  %9 = load i32, i32* %2, align 4
  %10 = icmp eq i32 %9, 0
  br i1 %10, label %11, label %13

11:                                               ; preds = %0
  %12 = call i32 (i8*, ...) @printf(i8* getelementptr inbounds ([2 x i8], [2 x i8]* @.str.1, i64 0, i64 0))
  store i32 0, i32* %1, align 4
  br label %42

13:                                               ; preds = %0
  br label %14

14:                                               ; preds = %18, %13
  %15 = load i32, i32* %2, align 4
  %16 = load i32, i32* %4, align 4
  %17 = icmp ne i32 %15, %16
  br i1 %17, label %18, label %41

18:                                               ; preds = %14
  %19 = load i32, i32* %2, align 4
  %20 = load i32, i32* %2, align 4
  %21 = load i32, i32* %5, align 4
  %22 = sdiv i32 %20, %21
  %23 = load i32, i32* %5, align 4
  %24 = mul nsw i32 %22, %23
  %25 = sub nsw i32 %19, %24
  %26 = load i32, i32* %4, align 4
  %27 = sub nsw i32 %25, %26
  %28 = load i32, i32* %5, align 4
  %29 = sdiv i32 %28, 10
  %30 = sdiv i32 %27, %29
  store i32 %30, i32* %3, align 4
  %31 = load i32, i32* %3, align 4
  %32 = load i32, i32* %5, align 4
  %33 = sdiv i32 %32, 10
  %34 = mul nsw i32 %31, %33
  %35 = load i32, i32* %4, align 4
  %36 = add nsw i32 %35, %34
  store i32 %36, i32* %4, align 4
  %37 = load i32, i32* %3, align 4
  %38 = call i32 (i8*, ...) @printf(i8* getelementptr inbounds ([3 x i8], [3 x i8]* @.str, i64 0, i64 0), i32 %37)
  %39 = load i32, i32* %5, align 4
  %40 = mul nsw i32 %39, 10
  store i32 %40, i32* %5, align 4
  br label %14

41:                                               ; preds = %14
  store i32 0, i32* %1, align 4
  br label %42

42:                                               ; preds = %41, %11
  %43 = load i32, i32* %1, align 4
  ret i32 %43
}

declare dso_local i32 @__isoc99_scanf(i8*, ...) #1

declare dso_local i32 @printf(i8*, ...) #1


!llvm.module.flags = !{!0}
!llvm.ident = !{!1}

!0 = !{i32 1, !"wchar_size", i32 4}
!1 = !{!"clang version 10.0.0-4ubuntu1 "}
